target datalayout = "e-m:e-p270:32:32-p271:32:32-p272:64:64-i64:64-i128:128-f80:128-n8:16:32:64-S128"
target triple = "x86_64-pc-linux-gnu"

%"class.toku::keyrange" = type <{ %struct.__toku_dbt, %struct.__toku_dbt, ptr, ptr, i8, [7 x i8] }>
%struct.__toku_dbt = type { ptr, i64, i64, i32 }

; Function Attrs: mustprogress uwtable
define void @_ZN4toku8keyrange17replace_right_keyEPK10__toku_dbt(ptr noundef nonnull align 8 dereferenceable(81) %0, ptr noundef %1) #0 align 2 {
  %3 = alloca ptr, align 8
  %4 = alloca ptr, align 8
  store ptr %0, ptr %3, align 8, !tbaa !4
  store ptr %1, ptr %4, align 8, !tbaa !9
  %5 = load ptr, ptr %3, align 8
  %6 = getelementptr inbounds nuw %"class.toku::keyrange", ptr %5, i32 0, i32 1
  call void @_Z16toku_destroy_dbtP10__toku_dbt(ptr noundef %6)
  %7 = load ptr, ptr %4, align 8, !tbaa !9
  %8 = call noundef zeroext i1 @_Z20toku_dbt_is_infinitePK10__toku_dbt(ptr noundef %7)
  br i1 %8, label %9, label %12

9:                                                ; preds = %2
  %10 = load ptr, ptr %4, align 8, !tbaa !9
  %11 = getelementptr inbounds nuw %"class.toku::keyrange", ptr %5, i32 0, i32 3
  store ptr %10, ptr %11, align 8, !tbaa !17
  br label %17

12:                                               ; preds = %2
  %13 = getelementptr inbounds nuw %"class.toku::keyrange", ptr %5, i32 0, i32 1
  %14 = load ptr, ptr %4, align 8, !tbaa !9
  %15 = call noundef ptr @_Z14toku_clone_dbtP10__toku_dbtRKS_(ptr noundef %13, ptr noundef nonnull align 8 dereferenceable(32) %14)
  %16 = getelementptr inbounds nuw %"class.toku::keyrange", ptr %5, i32 0, i32 3
  store ptr null, ptr %16, align 8, !tbaa !17
  br label %17

17:                                               ; preds = %12, %9
  %18 = getelementptr inbounds nuw %"class.toku::keyrange", ptr %5, i32 0, i32 4
  store i8 0, ptr %18, align 8, !tbaa !18
  ret void
}

; Function Attrs: mustprogress uwtable
define void @_ZN4toku8keyrange16replace_left_keyEPK10__toku_dbt(ptr noundef nonnull align 8 dereferenceable(81) %0, ptr noundef %1) #0 align 2 {
  %3 = alloca ptr, align 8
  %4 = alloca ptr, align 8
  store ptr %0, ptr %3, align 8, !tbaa !4
  store ptr %1, ptr %4, align 8, !tbaa !9
  %5 = load ptr, ptr %3, align 8
  %6 = getelementptr inbounds nuw %"class.toku::keyrange", ptr %5, i32 0, i32 4
  %7 = load i8, ptr %6, align 8, !tbaa !18, !range !23, !noundef !24
  %8 = trunc i8 %7 to i1
  br i1 %8, label %9, label %12

9:                                                ; preds = %2
  %10 = getelementptr inbounds nuw %"class.toku::keyrange", ptr %5, i32 0, i32 0
  %11 = getelementptr inbounds nuw %"class.toku::keyrange", ptr %5, i32 0, i32 1
  call void @llvm.memcpy.p0.p0.i64(ptr align 8 %11, ptr align 8 %10, i64 32, i1 false), !tbaa.struct !19
  br label %14

12:                                               ; preds = %2
  %13 = getelementptr inbounds nuw %"class.toku::keyrange", ptr %5, i32 0, i32 0
  call void @_Z16toku_destroy_dbtP10__toku_dbt(ptr noundef %13)
  br label %14

14:                                               ; preds = %12, %9
  %15 = load ptr, ptr %4, align 8, !tbaa !9
  %16 = call noundef zeroext i1 @_Z20toku_dbt_is_infinitePK10__toku_dbt(ptr noundef %15)
  br i1 %16, label %17, label %20

17:                                               ; preds = %14
  %18 = load ptr, ptr %4, align 8, !tbaa !9
  %19 = getelementptr inbounds nuw %"class.toku::keyrange", ptr %5, i32 0, i32 2
  store ptr %18, ptr %19, align 8, !tbaa !11
  br label %25

20:                                               ; preds = %14
  %21 = getelementptr inbounds nuw %"class.toku::keyrange", ptr %5, i32 0, i32 0
  %22 = load ptr, ptr %4, align 8, !tbaa !9
  %23 = call noundef ptr @_Z14toku_clone_dbtP10__toku_dbtRKS_(ptr noundef %21, ptr noundef nonnull align 8 dereferenceable(32) %22)
  %24 = getelementptr inbounds nuw %"class.toku::keyrange", ptr %5, i32 0, i32 2
  store ptr null, ptr %24, align 8, !tbaa !11
  br label %25

25:                                               ; preds = %20, %17
  %26 = getelementptr inbounds nuw %"class.toku::keyrange", ptr %5, i32 0, i32 4
  store i8 0, ptr %26, align 8, !tbaa !18
  ret void
}

; Function Attrs: mustprogress uwtable
define void @_ZN4toku8keyrange13set_both_keysEPK10__toku_dbt(ptr noundef nonnull align 8 dereferenceable(81) %0, ptr noundef %1) #0 align 2 {
  %3 = alloca ptr, align 8
  %4 = alloca ptr, align 8
  %5 = alloca %struct.__toku_dbt, align 8
  store ptr %0, ptr %3, align 8, !tbaa !4
  store ptr %1, ptr %4, align 8, !tbaa !9
  %6 = load ptr, ptr %3, align 8
  %7 = load ptr, ptr %4, align 8, !tbaa !9
  %8 = call noundef zeroext i1 @_Z20toku_dbt_is_infinitePK10__toku_dbt(ptr noundef %7)
  br i1 %8, label %9, label %14

9:                                                ; preds = %2
  %10 = load ptr, ptr %4, align 8, !tbaa !9
  %11 = getelementptr inbounds nuw %"class.toku::keyrange", ptr %6, i32 0, i32 2
  store ptr %10, ptr %11, align 8, !tbaa !11
  %12 = load ptr, ptr %4, align 8, !tbaa !9
  %13 = getelementptr inbounds nuw %"class.toku::keyrange", ptr %6, i32 0, i32 3
  store ptr %12, ptr %13, align 8, !tbaa !17
  br label %21

14:                                               ; preds = %2
  %15 = getelementptr inbounds nuw %"class.toku::keyrange", ptr %6, i32 0, i32 0
  %16 = load ptr, ptr %4, align 8, !tbaa !9
  %17 = call noundef ptr @_Z14toku_clone_dbtP10__toku_dbtRKS_(ptr noundef %15, ptr noundef nonnull align 8 dereferenceable(32) %16)
  %18 = getelementptr inbounds nuw %"class.toku::keyrange", ptr %6, i32 0, i32 1
  %19 = getelementptr inbounds nuw %"class.toku::keyrange", ptr %6, i32 0, i32 0
  call void @llvm.memcpy.p0.p0.i64(ptr align 8 %5, ptr align 8 %19, i64 32, i1 false), !tbaa.struct !19
  %20 = call noundef ptr @_Z16toku_copyref_dbtP10__toku_dbtS_(ptr noundef %18, ptr noundef byval(%struct.__toku_dbt) align 8 %5)
  br label %21

21:                                               ; preds = %14, %9
  %22 = getelementptr inbounds nuw %"class.toku::keyrange", ptr %6, i32 0, i32 4
  store i8 1, ptr %22, align 8, !tbaa !18
  ret void
}

; Function Attrs: mustprogress nounwind uwtable
define noundef ptr @_ZNK4toku8keyrange13get_right_keyEv(ptr noundef nonnull align 8 dereferenceable(81) %0) #2 align 2 {
  %2 = alloca ptr, align 8
  %3 = alloca ptr, align 8
  store ptr %0, ptr %3, align 8, !tbaa !4
  %4 = load ptr, ptr %3, align 8
  %5 = getelementptr inbounds nuw %"class.toku::keyrange", ptr %4, i32 0, i32 3
  %6 = load ptr, ptr %5, align 8, !tbaa !17
  %7 = icmp ne ptr %6, null
  br i1 %7, label %8, label %11

8:                                                ; preds = %1
  %9 = getelementptr inbounds nuw %"class.toku::keyrange", ptr %4, i32 0, i32 3
  %10 = load ptr, ptr %9, align 8, !tbaa !17
  store ptr %10, ptr %2, align 8
  br label %13

11:                                               ; preds = %1
  %12 = getelementptr inbounds nuw %"class.toku::keyrange", ptr %4, i32 0, i32 1
  store ptr %12, ptr %2, align 8
  br label %13

13:                                               ; preds = %11, %8
  %14 = load ptr, ptr %2, align 8
  ret ptr %14
}

; Function Attrs: mustprogress nounwind uwtable
define noundef ptr @_ZNK4toku8keyrange12get_left_keyEv(ptr noundef nonnull align 8 dereferenceable(81) %0) #2 align 2 {
  %2 = alloca ptr, align 8
  %3 = alloca ptr, align 8
  store ptr %0, ptr %3, align 8, !tbaa !4
  %4 = load ptr, ptr %3, align 8
  %5 = getelementptr inbounds nuw %"class.toku::keyrange", ptr %4, i32 0, i32 2
  %6 = load ptr, ptr %5, align 8, !tbaa !11
  %7 = icmp ne ptr %6, null
  br i1 %7, label %8, label %11

8:                                                ; preds = %1
  %9 = getelementptr inbounds nuw %"class.toku::keyrange", ptr %4, i32 0, i32 2
  %10 = load ptr, ptr %9, align 8, !tbaa !11
  store ptr %10, ptr %2, align 8
  br label %13

11:                                               ; preds = %1
  %12 = getelementptr inbounds nuw %"class.toku::keyrange", ptr %4, i32 0, i32 0
  store ptr %12, ptr %2, align 8
  br label %13

13:                                               ; preds = %11, %8
  %14 = load ptr, ptr %2, align 8
  ret ptr %14
}

; Function Attrs: mustprogress uwtable
define void @_ZN4toku8keyrange10init_emptyEv(ptr noundef nonnull align 8 dereferenceable(81) %0) #0 align 2 {
  %2 = alloca ptr, align 8
  store ptr %0, ptr %2, align 8, !tbaa !4
  %3 = load ptr, ptr %2, align 8
  %4 = getelementptr inbounds nuw %"class.toku::keyrange", ptr %3, i32 0, i32 2
  store ptr null, ptr %4, align 8, !tbaa !11
  %5 = getelementptr inbounds nuw %"class.toku::keyrange", ptr %3, i32 0, i32 3
  store ptr null, ptr %5, align 8, !tbaa !17
  %6 = getelementptr inbounds nuw %"class.toku::keyrange", ptr %3, i32 0, i32 0
  %7 = call noundef ptr @_Z13toku_init_dbtP10__toku_dbt(ptr noundef %6)
  %8 = getelementptr inbounds nuw %"class.toku::keyrange", ptr %3, i32 0, i32 1
  %9 = call noundef ptr @_Z13toku_init_dbtP10__toku_dbt(ptr noundef %8)
  %10 = getelementptr inbounds nuw %"class.toku::keyrange", ptr %3, i32 0, i32 4
  store i8 0, ptr %10, align 8, !tbaa !18
  ret void
}

; Function Attrs: mustprogress uwtable
define void @_ZN4toku8keyrange11create_copyERKS0_(ptr noundef nonnull align 8 dereferenceable(81) %0, ptr noundef nonnull align 8 dereferenceable(81) %1) #0 align 2 {
  %3 = alloca ptr, align 8
  %4 = alloca ptr, align 8
  store ptr %0, ptr %3, align 8, !tbaa !4
  store ptr %1, ptr %4, align 8, !tbaa !4
  %5 = load ptr, ptr %3, align 8
  call void @_ZN4toku8keyrange10init_emptyEv(ptr noundef nonnull align 8 dereferenceable(81) %5)
  %6 = load ptr, ptr %4, align 8, !tbaa !4
  %7 = call noundef ptr @_ZNK4toku8keyrange12get_left_keyEv(ptr noundef nonnull align 8 dereferenceable(81) %6)
  %8 = load ptr, ptr %4, align 8, !tbaa !4
  %9 = call noundef ptr @_ZNK4toku8keyrange13get_right_keyEv(ptr noundef nonnull align 8 dereferenceable(81) %8)
  %10 = call noundef zeroext i1 @_Z15toku_dbt_equalsPK10__toku_dbtS1_(ptr noundef %7, ptr noundef %9)
  br i1 %10, label %11, label %14

11:                                               ; preds = %2
  %12 = load ptr, ptr %4, align 8, !tbaa !4
  %13 = call noundef ptr @_ZNK4toku8keyrange12get_left_keyEv(ptr noundef nonnull align 8 dereferenceable(81) %12)
  call void @_ZN4toku8keyrange13set_both_keysEPK10__toku_dbt(ptr noundef nonnull align 8 dereferenceable(81) %5, ptr noundef %13)
  br label %19

14:                                               ; preds = %2
  %15 = load ptr, ptr %4, align 8, !tbaa !4
  %16 = call noundef ptr @_ZNK4toku8keyrange12get_left_keyEv(ptr noundef nonnull align 8 dereferenceable(81) %15)
  call void @_ZN4toku8keyrange16replace_left_keyEPK10__toku_dbt(ptr noundef nonnull align 8 dereferenceable(81) %5, ptr noundef %16)
  %17 = load ptr, ptr %4, align 8, !tbaa !4
  %18 = call noundef ptr @_ZNK4toku8keyrange13get_right_keyEv(ptr noundef nonnull align 8 dereferenceable(81) %17)
  call void @_ZN4toku8keyrange17replace_right_keyEPK10__toku_dbt(ptr noundef nonnull align 8 dereferenceable(81) %5, ptr noundef %18)
  br label %19

19:                                               ; preds = %14, %11
  ret void
}