; Function Attrs: mustprogress uwtable
define void @_ZN4toku8keyrange11create_copyERKS0_(ptr noundef nonnull align 8 dereferenceable(81) initializes((64, 80)) %0, ptr noundef nonnull align 8 dereferenceable(81) %1) local_unnamed_addr #0 align 2 {
  %3 = getelementptr inbounds nuw i8, ptr %0, i64 64
  tail call void @llvm.memset.p0.i64(ptr noundef nonnull align 8 dereferenceable(16) %3, i8 0, i64 16, i1 false)
  %4 = tail call noundef ptr @_Z13toku_init_dbtP10__toku_dbt(ptr noundef nonnull align 8 dereferenceable(81) %0)
  %5 = getelementptr inbounds nuw i8, ptr %0, i64 32
  %6 = tail call noundef ptr @_Z13toku_init_dbtP10__toku_dbt(ptr noundef nonnull %5)
  %7 = getelementptr inbounds nuw i8, ptr %0, i64 80
  store i8 0, ptr %7, align 8, !tbaa !4
  %8 = getelementptr inbounds nuw i8, ptr %1, i64 64
  %9 = load ptr, ptr %8, align 8, !tbaa !14
  %.not.i = icmp eq ptr %9, null
  %..i = select i1 %.not.i, ptr %1, ptr %9
  %10 = getelementptr inbounds nuw i8, ptr %1, i64 72
  %11 = load ptr, ptr %10, align 8, !tbaa !15
  %.not.i6 = icmp eq ptr %11, null
  %12 = getelementptr inbounds nuw i8, ptr %1, i64 32
  %.0.i = select i1 %.not.i6, ptr %12, ptr %11
  %13 = tail call noundef zeroext i1 @_Z15toku_dbt_equalsPK10__toku_dbtS1_(ptr noundef nonnull %..i, ptr noundef nonnull %.0.i)
  %14 = load ptr, ptr %8, align 8, !tbaa !14
  %.not.i7 = icmp eq ptr %14, null
  %..i8 = select i1 %.not.i7, ptr %1, ptr %14
  br i1 %13, label %15, label %22

15:                                               ; preds = %2
  %16 = tail call noundef zeroext i1 @_Z20toku_dbt_is_infinitePK10__toku_dbt(ptr noundef nonnull %..i8)
  br i1 %16, label %17, label %19

17:                                               ; preds = %15
  store ptr %..i8, ptr %3, align 8, !tbaa !14
  %18 = getelementptr inbounds nuw i8, ptr %0, i64 72
  store ptr %..i8, ptr %18, align 8, !tbaa !15
  br label %_ZN4toku8keyrange13set_both_keysEPK10__toku_dbt.exit

19:                                               ; preds = %15
  %20 = tail call noundef ptr @_Z14toku_clone_dbtP10__toku_dbtRKS_(ptr noundef nonnull align 8 dereferenceable(81) %0, ptr noundef nonnull align 8 dereferenceable(32) %..i8)
  %21 = tail call noundef ptr @_Z16toku_copyref_dbtP10__toku_dbtS_(ptr noundef nonnull %5, ptr noundef nonnull byval(%struct.__toku_dbt) align 8 %0)
  br label %_ZN4toku8keyrange13set_both_keysEPK10__toku_dbt.exit

22:                                               ; preds = %2
  %23 = load i8, ptr %7, align 8, !tbaa !4, !range !16, !noundef !17
  %24 = trunc nuw i8 %23 to i1
  br i1 %24, label %25, label %26

25:                                               ; preds = %22
  tail call void @llvm.memcpy.p0.p0.i64(ptr noundef nonnull align 8 dereferenceable(32) %5, ptr noundef nonnull align 8 dereferenceable(81) %0, i64 32, i1 false), !tbaa.struct !18
  br label %27

26:                                               ; preds = %22
  tail call void @_Z16toku_destroy_dbtP10__toku_dbt(ptr noundef nonnull align 8 dereferenceable(81) %0)
  br label %27

27:                                               ; preds = %26, %25
  %28 = tail call noundef zeroext i1 @_Z20toku_dbt_is_infinitePK10__toku_dbt(ptr noundef nonnull %..i8)
  br i1 %28, label %_ZN4toku8keyrange16replace_left_keyEPK10__toku_dbt.exit, label %29

29:                                               ; preds = %27
  %30 = tail call noundef ptr @_Z14toku_clone_dbtP10__toku_dbtRKS_(ptr noundef nonnull align 8 dereferenceable(81) %0, ptr noundef nonnull align 8 dereferenceable(32) %..i8)
  br label %_ZN4toku8keyrange16replace_left_keyEPK10__toku_dbt.exit

_ZN4toku8keyrange16replace_left_keyEPK10__toku_dbt.exit: ; preds = %27, %29
  %.sink.i = phi ptr [ null, %29 ], [ %..i8, %27 ]
  store ptr %.sink.i, ptr %3, align 8, !tbaa !14
  store i8 0, ptr %7, align 8, !tbaa !4
  %31 = load ptr, ptr %10, align 8, !tbaa !15
  %.not.i11 = icmp eq ptr %31, null
  %.0.i12 = select i1 %.not.i11, ptr %12, ptr %31
  tail call void @_Z16toku_destroy_dbtP10__toku_dbt(ptr noundef nonnull %5)
  %32 = tail call noundef zeroext i1 @_Z20toku_dbt_is_infinitePK10__toku_dbt(ptr noundef nonnull %.0.i12)
  br i1 %32, label %_ZN4toku8keyrange17replace_right_keyEPK10__toku_dbt.exit, label %33

33:                                               ; preds = %_ZN4toku8keyrange16replace_left_keyEPK10__toku_dbt.exit
  %34 = tail call noundef ptr @_Z14toku_clone_dbtP10__toku_dbtRKS_(ptr noundef nonnull %5, ptr noundef nonnull align 8 dereferenceable(32) %.0.i12)
  br label %_ZN4toku8keyrange17replace_right_keyEPK10__toku_dbt.exit

_ZN4toku8keyrange17replace_right_keyEPK10__toku_dbt.exit: ; preds = %_ZN4toku8keyrange16replace_left_keyEPK10__toku_dbt.exit, %33
  %.sink.i13 = phi ptr [ null, %33 ], [ %.0.i12, %_ZN4toku8keyrange16replace_left_keyEPK10__toku_dbt.exit ]
  %35 = getelementptr inbounds nuw i8, ptr %0, i64 72
  store ptr %.sink.i13, ptr %35, align 8, !tbaa !15
  br label %_ZN4toku8keyrange13set_both_keysEPK10__toku_dbt.exit

_ZN4toku8keyrange13set_both_keysEPK10__toku_dbt.exit: ; preds = %19, %17, %_ZN4toku8keyrange17replace_right_keyEPK10__toku_dbt.exit
  %storemerge = phi i8 [ 0, %_ZN4toku8keyrange17replace_right_keyEPK10__toku_dbt.exit ], [ 1, %17 ], [ 1, %19 ]
  store i8 %storemerge, ptr %7, align 8, !tbaa !4
  ret void
}